target datalayout = "e-m:e-p270:32:32-p271:32:32-p272:64:64-i64:64-i128:128-f80:128-n8:16:32:64-S128"
target triple = "x86_64-pc-linux-gnu"

%struct._object = type { %union.anon, ptr }
%union.anon = type { i64 }
%struct._curses_panel_state = type { ptr, ptr }
%struct.PyVarObject = type { %struct._object, i64 }
%struct.PyCursesPanelObject = type { %struct._object, ptr, ptr }
%struct.anon = type { i32, i32 }

@PyCurses_API = internal global ptr null, align 8
@PyExc_TypeError = external global ptr, align 8
@.str.43 = private unnamed_addr constant [29 x i8] c"userptr() takes no arguments\00", align 1
@.str.44 = private unnamed_addr constant [15 x i8] c"no userptr set\00", align 1

; Function Attrs: alwaysinline nounwind uwtable
define internal void @Py_INCREF(ptr noundef %0) #4 {
  %2 = alloca ptr, align 8
  %3 = alloca i32, align 4
  %4 = alloca i32, align 4
  store ptr %0, ptr %2, align 8, !tbaa !3
  call void @llvm.lifetime.start.p0(i64 4, ptr %3) #5
  %5 = load ptr, ptr %2, align 8, !tbaa !3
  %6 = getelementptr inbounds nuw %struct._object, ptr %5, i32 0, i32 0
  %7 = getelementptr inbounds nuw %struct.anon, ptr %6, i32 0, i32 0
  %8 = load i32, ptr %7, align 8, !tbaa !41
  store i32 %8, ptr %3, align 4, !tbaa !9
  %9 = load i32, ptr %3, align 4, !tbaa !9
  %10 = icmp slt i32 %9, 0
  br i1 %10, label %11, label %12

11:                                               ; preds = %1
  store i32 1, ptr %4, align 4
  br label %18

12:                                               ; preds = %1
  %13 = load i32, ptr %3, align 4, !tbaa !9
  %14 = add i32 %13, 1
  %15 = load ptr, ptr %2, align 8, !tbaa !3
  %16 = getelementptr inbounds nuw %struct._object, ptr %15, i32 0, i32 0
  %17 = getelementptr inbounds nuw %struct.anon, ptr %16, i32 0, i32 0
  store i32 %14, ptr %17, align 8, !tbaa !41
  store i32 0, ptr %4, align 4
  br label %18

18:                                               ; preds = %12, %11
  call void @llvm.lifetime.end.p0(i64 4, ptr %3) #5
  %19 = load i32, ptr %4, align 4
  switch i32 %19, label %21 [
    i32 0, label %20
    i32 1, label %20
  ]

20:                                               ; preds = %18, %18
  ret void

21:                                               ; preds = %18
  unreachable
}

; Function Attrs: inlinehint nounwind uwtable
define internal ptr @_Py_NewRef(ptr noundef %0) #3 {
  %2 = alloca ptr, align 8
  store ptr %0, ptr %2, align 8, !tbaa !3
  %3 = load ptr, ptr %2, align 8, !tbaa !3
  call void @Py_INCREF(ptr noundef %3)
  %4 = load ptr, ptr %2, align 8, !tbaa !3
  ret ptr %4
}

; Function Attrs: inlinehint nounwind uwtable
define internal i64 @Py_SIZE(ptr noundef %0) #3 {
  %2 = alloca ptr, align 8
  store ptr %0, ptr %2, align 8, !tbaa !3
  %3 = load ptr, ptr %2, align 8, !tbaa !3
  %4 = getelementptr inbounds nuw %struct.PyVarObject, ptr %3, i32 0, i32 1
  %5 = load i64, ptr %4, align 8, !tbaa !49
  ret i64 %5
}

; Function Attrs: nounwind uwtable
define internal ptr @_curses_panel_panel_userptr_impl(ptr noundef %0, ptr noundef %1) #0 {
  %3 = alloca ptr, align 8
  %4 = alloca ptr, align 8
  %5 = alloca ptr, align 8
  %6 = alloca ptr, align 8
  %7 = alloca i32, align 4
  %8 = alloca ptr, align 8
  store ptr %0, ptr %4, align 8, !tbaa !8
  store ptr %1, ptr %5, align 8, !tbaa !19
  call void @llvm.lifetime.start.p0(i64 8, ptr %6) #5
  %9 = load ptr, ptr %5, align 8, !tbaa !19
  %10 = call ptr @PyType_GetModuleState(ptr noundef %9)
  store ptr %10, ptr %6, align 8, !tbaa !8
  %11 = load ptr, ptr @PyCurses_API, align 8, !tbaa !8
  %12 = getelementptr ptr, ptr %11, i64 2
  %13 = load ptr, ptr %12, align 8, !tbaa !8
  %14 = call i32 %13()
  %15 = icmp ne i32 %14, 0
  br i1 %15, label %17, label %16

16:                                               ; preds = %2
  store ptr null, ptr %3, align 8
  store i32 1, ptr %7, align 4
  br label %32

17:                                               ; preds = %2
  call void @llvm.lifetime.start.p0(i64 8, ptr %8) #5
  %18 = load ptr, ptr %4, align 8, !tbaa !8
  %19 = getelementptr inbounds nuw %struct.PyCursesPanelObject, ptr %18, i32 0, i32 1
  %20 = load ptr, ptr %19, align 8, !tbaa !36
  %21 = call ptr @panel_userptr(ptr noundef %20)
  store ptr %21, ptr %8, align 8, !tbaa !3
  %22 = load ptr, ptr %8, align 8, !tbaa !3
  %23 = icmp eq ptr %22, null
  br i1 %23, label %24, label %28

24:                                               ; preds = %17
  %25 = load ptr, ptr %6, align 8, !tbaa !8
  %26 = getelementptr inbounds nuw %struct._curses_panel_state, ptr %25, i32 0, i32 0
  %27 = load ptr, ptr %26, align 8, !tbaa !11
  call void @PyErr_SetString(ptr noundef %27, ptr noundef @.str.44)
  store ptr null, ptr %3, align 8
  store i32 1, ptr %7, align 4
  br label %31

28:                                               ; preds = %17
  %29 = load ptr, ptr %8, align 8, !tbaa !3
  %30 = call ptr @_Py_NewRef(ptr noundef %29)
  store ptr %30, ptr %3, align 8
  store i32 1, ptr %7, align 4
  br label %31

31:                                               ; preds = %28, %24
  call void @llvm.lifetime.end.p0(i64 8, ptr %8) #5
  br label %32

32:                                               ; preds = %31, %16
  call void @llvm.lifetime.end.p0(i64 8, ptr %6) #5
  %33 = load ptr, ptr %3, align 8
  ret ptr %33
}

; Function Attrs: inlinehint nounwind uwtable
define internal i64 @PyTuple_GET_SIZE(ptr noundef %0) #3 {
  %2 = alloca ptr, align 8
  %3 = alloca ptr, align 8
  store ptr %0, ptr %2, align 8, !tbaa !3
  call void @llvm.lifetime.start.p0(i64 8, ptr %3) #5
  %4 = load ptr, ptr %2, align 8, !tbaa !3
  store ptr %4, ptr %3, align 8, !tbaa !8
  %5 = load ptr, ptr %3, align 8, !tbaa !8
  %6 = call i64 @Py_SIZE(ptr noundef %5)
  call void @llvm.lifetime.end.p0(i64 8, ptr %3) #5
  ret i64 %6
}

; Function Attrs: nounwind uwtable
define internal ptr @_curses_panel_panel_userptr(ptr noundef %0, ptr noundef %1, ptr noundef %2, i64 noundef %3, ptr noundef %4) #0 {
  %6 = alloca ptr, align 8
  %7 = alloca ptr, align 8
  %8 = alloca ptr, align 8
  %9 = alloca ptr, align 8
  %10 = alloca i64, align 8
  %11 = alloca ptr, align 8
  store ptr %0, ptr %7, align 8, !tbaa !3
  store ptr %1, ptr %8, align 8, !tbaa !19
  store ptr %2, ptr %9, align 8, !tbaa !15
  store i64 %3, ptr %10, align 8, !tbaa !48
  store ptr %4, ptr %11, align 8, !tbaa !3
  %12 = load i64, ptr %10, align 8, !tbaa !48
  %13 = icmp ne i64 %12, 0
  br i1 %13, label %21, label %14

14:                                               ; preds = %5
  %15 = load ptr, ptr %11, align 8, !tbaa !3
  %16 = icmp ne ptr %15, null
  br i1 %16, label %17, label %23

17:                                               ; preds = %14
  %18 = load ptr, ptr %11, align 8, !tbaa !3
  %19 = call i64 @PyTuple_GET_SIZE(ptr noundef %18)
  %20 = icmp ne i64 %19, 0
  br i1 %20, label %21, label %23

21:                                               ; preds = %17, %5
  %22 = load ptr, ptr @PyExc_TypeError, align 8, !tbaa !3
  call void @PyErr_SetString(ptr noundef %22, ptr noundef @.str.43)
  store ptr null, ptr %6, align 8
  br label %27

23:                                               ; preds = %17, %14
  %24 = load ptr, ptr %7, align 8, !tbaa !3
  %25 = load ptr, ptr %8, align 8, !tbaa !19
  %26 = call ptr @_curses_panel_panel_userptr_impl(ptr noundef %24, ptr noundef %25)
  store ptr %26, ptr %6, align 8
  br label %27

27:                                               ; preds = %23, %21
  %28 = load ptr, ptr %6, align 8
  ret ptr %28
}