; Function Attrs: nounwind uwtable
define internal ptr @_curses_panel_panel_userptr(ptr noundef readonly captures(none) %0, ptr noundef %1, ptr readnone captures(none) %2, i64 noundef %3, ptr noundef readonly %4) #0 {
  %.not = icmp eq i64 %3, 0
  br i1 %.not, label %6, label %9

6:                                                ; preds = %5
  %.not6 = icmp eq ptr %4, null
  br i1 %.not6, label %11, label %7

7:                                                ; preds = %6
  %8 = getelementptr i8, ptr %4, i64 16
  %.val = load i64, ptr %8, align 8, !tbaa !42
  %.not7 = icmp eq i64 %.val, 0
  br i1 %.not7, label %11, label %9

9:                                                ; preds = %7, %5
  %10 = load ptr, ptr @PyExc_TypeError, align 8, !tbaa !13
  tail call void @PyErr_SetString(ptr noundef %10, ptr noundef nonnull @.str.43) #4
  br label %_curses_panel_panel_userptr_impl.exit

11:                                               ; preds = %7, %6
  %12 = tail call ptr @PyType_GetModuleState(ptr noundef %1) #4
  %13 = load ptr, ptr @PyCurses_API, align 8, !tbaa !16
  %14 = getelementptr i8, ptr %13, i64 16
  %15 = load ptr, ptr %14, align 8, !tbaa !16
  %16 = tail call i32 %15() #4
  %.not.i = icmp eq i32 %16, 0
  br i1 %.not.i, label %_curses_panel_panel_userptr_impl.exit, label %17

17:                                               ; preds = %11
  %18 = getelementptr inbounds nuw i8, ptr %0, i64 16
  %19 = load ptr, ptr %18, align 8, !tbaa !21
  %20 = tail call ptr @panel_userptr(ptr noundef %19) #4
  %21 = icmp eq ptr %20, null
  br i1 %21, label %22, label %24

22:                                               ; preds = %17
  %23 = load ptr, ptr %12, align 8, !tbaa !9
  tail call void @PyErr_SetString(ptr noundef %23, ptr noundef nonnull @.str.44) #4
  br label %_curses_panel_panel_userptr_impl.exit

24:                                               ; preds = %17
  %25 = load i32, ptr %20, align 8, !tbaa !14
  %26 = icmp slt i32 %25, 0
  br i1 %26, label %_curses_panel_panel_userptr_impl.exit, label %27

27:                                               ; preds = %24
  %28 = add nuw i32 %25, 1
  store i32 %28, ptr %20, align 8, !tbaa !14
  br label %_curses_panel_panel_userptr_impl.exit

_curses_panel_panel_userptr_impl.exit:            ; preds = %27, %24, %22, %11, %9
  %.0 = phi ptr [ null, %9 ], [ null, %11 ], [ null, %22 ], [ %20, %24 ], [ %20, %27 ]
  ret ptr %.0
}